target datalayout = "e-m:e-p270:32:32-p271:32:32-p272:64:64-i64:64-i128:128-f80:128-n8:16:32:64-S128"
target triple = "x86_64-pc-linux-gnu"

%struct.nameData = type { [64 x i8] }
%struct.RelationData = type { %struct.RelFileLocator, ptr, i32, i32, i8, i8, i8, i8, i8, i32, i32, i32, i32, ptr, ptr, i32, %struct.LockInfoData, ptr, ptr, ptr, ptr, ptr, i8, ptr, ptr, ptr, ptr, ptr, ptr, i32, ptr, i8, ptr, ptr, i32, i8, i32, ptr, i8, ptr, ptr, ptr, ptr, ptr, ptr, ptr, i32, ptr, ptr, ptr, ptr, ptr, ptr, ptr, ptr, ptr, ptr, ptr, ptr, ptr, ptr, ptr, ptr, ptr, ptr, ptr, i32, i8, ptr }
%struct.RelFileLocator = type { i32, i32, i32 }
%struct.LockInfoData = type { %struct.LockRelId }
%struct.LockRelId = type { i32, i32 }
%struct.FormData_pg_class = type { i32, %struct.nameData, i32, i32, i32, i32, i32, i32, i32, i32, float, i32, i32, i8, i8, i8, i8, i16, i16, i8, i8, i8, i8, i8, i8, i8, i8, i32, i32, i32 }

@.str.2 = private unnamed_addr constant [12 x i8] c"tablecmds.c\00", align 1
@.str.244 = private unnamed_addr constant [41 x i8] c"cannot change inheritance of typed table\00", align 1
@__func__.ATPrepAddInherit = private unnamed_addr constant [17 x i8] c"ATPrepAddInherit\00", align 1
@.str.245 = private unnamed_addr constant [41 x i8] c"cannot change inheritance of a partition\00", align 1
@.str.246 = private unnamed_addr constant [47 x i8] c"cannot change inheritance of partitioned table\00", align 1

; Function Attrs: nounwind uwtable
define internal void @ATPrepAddInherit(ptr noundef %0) #0 {
  %2 = alloca ptr, align 8
  store ptr %0, ptr %2, align 8
  %3 = load ptr, ptr %2, align 8
  %4 = getelementptr inbounds nuw %struct.RelationData, ptr %3, i32 0, i32 13
  %5 = load ptr, ptr %4, align 8
  %6 = getelementptr inbounds nuw %struct.FormData_pg_class, ptr %5, i32 0, i32 4
  %7 = load i32, ptr %6, align 4
  %8 = icmp ne i32 %7, 0
  br i1 %8, label %9, label %20

9:                                                ; preds = %1
  br label %10

10:                                               ; preds = %9
  br i1 true, label %11, label %13

11:                                               ; preds = %10
  %12 = call zeroext i1 @errstart_cold(i32 noundef 21, ptr noundef null) #13
  br i1 %12, label %15, label %18

13:                                               ; preds = %10
  %14 = call zeroext i1 @errstart(i32 noundef 21, ptr noundef null)
  br i1 %14, label %15, label %18

15:                                               ; preds = %13, %11
  %16 = call i32 @errcode(i32 noundef 151027844)
  %17 = call i32 (ptr, ...) @errmsg(ptr noundef @.str.244)
  call void @errfinish(ptr noundef @.str.2, i32 noundef 16307, ptr noundef @__func__.ATPrepAddInherit)
  br label %18

18:                                               ; preds = %15, %13, %11
  unreachable

19:                                               ; No predecessors!
  br label %20

20:                                               ; preds = %19, %1
  %21 = load ptr, ptr %2, align 8
  %22 = getelementptr inbounds nuw %struct.RelationData, ptr %21, i32 0, i32 13
  %23 = load ptr, ptr %22, align 8
  %24 = getelementptr inbounds nuw %struct.FormData_pg_class, ptr %23, i32 0, i32 26
  %25 = load i8, ptr %24, align 1, !range !6, !noundef !7
  %26 = trunc i8 %25 to i1
  br i1 %26, label %27, label %38

27:                                               ; preds = %20
  br label %28

28:                                               ; preds = %27
  br i1 true, label %29, label %31

29:                                               ; preds = %28
  %30 = call zeroext i1 @errstart_cold(i32 noundef 21, ptr noundef null) #13
  br i1 %30, label %33, label %36

31:                                               ; preds = %28
  %32 = call zeroext i1 @errstart(i32 noundef 21, ptr noundef null)
  br i1 %32, label %33, label %36

33:                                               ; preds = %31, %29
  %34 = call i32 @errcode(i32 noundef 151027844)
  %35 = call i32 (ptr, ...) @errmsg(ptr noundef @.str.245)
  call void @errfinish(ptr noundef @.str.2, i32 noundef 16312, ptr noundef @__func__.ATPrepAddInherit)
  br label %36

36:                                               ; preds = %33, %31, %29
  unreachable

37:                                               ; No predecessors!
  br label %38

38:                                               ; preds = %37, %20
  %39 = load ptr, ptr %2, align 8
  %40 = getelementptr inbounds nuw %struct.RelationData, ptr %39, i32 0, i32 13
  %41 = load ptr, ptr %40, align 8
  %42 = getelementptr inbounds nuw %struct.FormData_pg_class, ptr %41, i32 0, i32 16
  %43 = load i8, ptr %42, align 1
  %44 = sext i8 %43 to i32
  %45 = icmp eq i32 %44, 112
  br i1 %45, label %46, label %57

46:                                               ; preds = %38
  br label %47

47:                                               ; preds = %46
  br i1 true, label %48, label %50

48:                                               ; preds = %47
  %49 = call zeroext i1 @errstart_cold(i32 noundef 21, ptr noundef null) #13
  br i1 %49, label %52, label %55

50:                                               ; preds = %47
  %51 = call zeroext i1 @errstart(i32 noundef 21, ptr noundef null)
  br i1 %51, label %52, label %55

52:                                               ; preds = %50, %48
  %53 = call i32 @errcode(i32 noundef 151027844)
  %54 = call i32 (ptr, ...) @errmsg(ptr noundef @.str.246)
  call void @errfinish(ptr noundef @.str.2, i32 noundef 16317, ptr noundef @__func__.ATPrepAddInherit)
  br label %55

55:                                               ; preds = %52, %50, %48
  unreachable

56:                                               ; No predecessors!
  br label %57

57:                                               ; preds = %56, %38
  ret void
}