; Function Attrs: nounwind uwtable
define internal fastcc void @ATPrepAddInherit(ptr readonly captures(none) %.56.val) unnamed_addr #0 {
  %1 = getelementptr inbounds nuw i8, ptr %.56.val, i64 76
  %2 = load i32, ptr %1, align 4
  %.not = icmp eq i32 %2, 0
  br i1 %.not, label %7, label %3

3:                                                ; preds = %0
  %4 = tail call zeroext i1 @errstart_cold(i32 noundef 21, ptr noundef null) #16
  tail call void @llvm.assume(i1 %4)
  %5 = tail call i32 @errcode(i32 noundef 151027844) #15
  %6 = tail call i32 (ptr, ...) @errmsg(ptr noundef nonnull @.str.244) #15
  tail call void @errfinish(ptr noundef nonnull @.str.2, i32 noundef 16307, ptr noundef nonnull @__func__.ATPrepAddInherit) #15
  unreachable

7:                                                ; preds = %0
  %8 = getelementptr inbounds nuw i8, ptr %.56.val, i64 127
  %9 = load i8, ptr %8, align 1, !range !6, !noundef !7
  %10 = trunc nuw i8 %9 to i1
  br i1 %10, label %11, label %15

11:                                               ; preds = %7
  %12 = tail call zeroext i1 @errstart_cold(i32 noundef 21, ptr noundef null) #16
  tail call void @llvm.assume(i1 %12)
  %13 = tail call i32 @errcode(i32 noundef 151027844) #15
  %14 = tail call i32 (ptr, ...) @errmsg(ptr noundef nonnull @.str.245) #15
  tail call void @errfinish(ptr noundef nonnull @.str.2, i32 noundef 16312, ptr noundef nonnull @__func__.ATPrepAddInherit) #15
  unreachable

15:                                               ; preds = %7
  %16 = getelementptr inbounds nuw i8, ptr %.56.val, i64 115
  %17 = load i8, ptr %16, align 1
  %18 = icmp eq i8 %17, 112
  br i1 %18, label %19, label %23

19:                                               ; preds = %15
  %20 = tail call zeroext i1 @errstart_cold(i32 noundef 21, ptr noundef null) #16
  tail call void @llvm.assume(i1 %20)
  %21 = tail call i32 @errcode(i32 noundef 151027844) #15
  %22 = tail call i32 (ptr, ...) @errmsg(ptr noundef nonnull @.str.246) #15
  tail call void @errfinish(ptr noundef nonnull @.str.2, i32 noundef 16317, ptr noundef nonnull @__func__.ATPrepAddInherit) #15
  unreachable

23:                                               ; preds = %15
  ret void
}